target datalayout = "e-m:e-p270:32:32-p271:32:32-p272:64:64-i64:64-i128:128-f80:128-n8:16:32:64-S128"
target triple = "x86_64-pc-linux-gnu"

%"struct.std::_Rb_tree_header" = type { %"struct.std::_Rb_tree_node_base", i64 }
%"struct.std::_Rb_tree_node_base" = type { i32, ptr, ptr, ptr }
%"class.grpc_core::RefCount" = type { %"struct.std::atomic" }
%"struct.std::atomic" = type { %"struct.std::__atomic_base" }
%"struct.std::__atomic_base" = type { i64 }
%"class.std::_Rb_tree.168" = type { %"struct.std::_Rb_tree<grpc_resolved_address, std::pair<const grpc_resolved_address, grpc_core::RefCountedPtr<grpc_core::(anonymous namespace)::OutlierDetectionLb::SubchannelState>>, std::_Select1st<std::pair<const grpc_resolved_address, grpc_core::RefCountedPtr<grpc_core::(anonymous namespace)::OutlierDetectionLb::SubchannelState>>>, grpc_core::ResolvedAddressLessThan>::_Rb_tree_impl" }
%"struct.std::_Rb_tree<grpc_resolved_address, std::pair<const grpc_resolved_address, grpc_core::RefCountedPtr<grpc_core::(anonymous namespace)::OutlierDetectionLb::SubchannelState>>, std::_Select1st<std::pair<const grpc_resolved_address, grpc_core::RefCountedPtr<grpc_core::(anonymous namespace)::OutlierDetectionLb::SubchannelState>>>, grpc_core::ResolvedAddressLessThan>::_Rb_tree_impl" = type { [8 x i8], %"struct.std::_Rb_tree_header" }
%"struct.std::_Rb_tree_node.212" = type { %"struct.std::_Rb_tree_node_base", %"struct.__gnu_cxx::__aligned_membuf.213" }
%"struct.__gnu_cxx::__aligned_membuf.213" = type { [144 x i8] }
%"struct.std::pair.214" = type { %struct.grpc_resolved_address, %"class.grpc_core::RefCountedPtr.216" }
%struct.grpc_resolved_address = type { [128 x i8], i32 }
%"class.grpc_core::RefCountedPtr.216" = type { ptr }
%"class.grpc_core::RefCounted" = type { %"class.grpc_core::PolymorphicRefCount", %"class.grpc_core::RefCount" }
%"class.grpc_core::PolymorphicRefCount" = type { ptr }

; Function Attrs: alwaysinline mustprogress nounwind uwtable
define linkonce_odr noundef i64 @_ZNSt13__atomic_baseIlE9fetch_subElSt12memory_order(ptr noundef nonnull align 8 dereferenceable(8) %0, i64 noundef %1, i32 noundef %2) #15 comdat align 2 {
  %4 = alloca ptr, align 8
  %5 = alloca i64, align 8
  %6 = alloca i32, align 4
  %7 = alloca i64, align 8
  %8 = alloca i64, align 8
  store ptr %0, ptr %4, align 8, !tbaa !550
  store i64 %1, ptr %5, align 8, !tbaa !44
  store i32 %2, ptr %6, align 4, !tbaa !509
  %9 = load ptr, ptr %4, align 8
  %10 = getelementptr inbounds nuw %"struct.std::__atomic_base", ptr %9, i32 0, i32 0
  %11 = load i32, ptr %6, align 4, !tbaa !509
  %12 = load i64, ptr %5, align 8, !tbaa !44
  store i64 %12, ptr %7, align 8, !tbaa !44
  switch i32 %11, label %13 [
    i32 1, label %16
    i32 2, label %16
    i32 3, label %19
    i32 4, label %22
    i32 5, label %25
  ]

13:                                               ; preds = %3
  %14 = load i64, ptr %7, align 8
  %15 = atomicrmw sub ptr %10, i64 %14 monotonic, align 8
  store i64 %15, ptr %8, align 8
  br label %28

16:                                               ; preds = %3, %3
  %17 = load i64, ptr %7, align 8
  %18 = atomicrmw sub ptr %10, i64 %17 acquire, align 8
  store i64 %18, ptr %8, align 8
  br label %28

19:                                               ; preds = %3
  %20 = load i64, ptr %7, align 8
  %21 = atomicrmw sub ptr %10, i64 %20 release, align 8
  store i64 %21, ptr %8, align 8
  br label %28

22:                                               ; preds = %3
  %23 = load i64, ptr %7, align 8
  %24 = atomicrmw sub ptr %10, i64 %23 acq_rel, align 8
  store i64 %24, ptr %8, align 8
  br label %28

25:                                               ; preds = %3
  %26 = load i64, ptr %7, align 8
  %27 = atomicrmw sub ptr %10, i64 %26 seq_cst, align 8
  store i64 %27, ptr %8, align 8
  br label %28

28:                                               ; preds = %25, %22, %19, %16, %13
  %29 = load i64, ptr %8, align 8, !tbaa !44
  ret i64 %29
}

; Function Attrs: mustprogress nounwind uwtable
define linkonce_odr noundef zeroext i1 @_ZN9grpc_core8RefCount5UnrefEv(ptr noundef nonnull align 8 dereferenceable(8) %0) #6 comdat align 2 {
  %2 = alloca ptr, align 8
  %3 = alloca i64, align 8
  store ptr %0, ptr %2, align 8, !tbaa !546
  %4 = load ptr, ptr %2, align 8
  call void @llvm.lifetime.start.p0(i64 8, ptr %3) #3
  %5 = getelementptr inbounds nuw %"class.grpc_core::RefCount", ptr %4, i32 0, i32 0
  %6 = call noundef i64 @_ZNSt13__atomic_baseIlE9fetch_subElSt12memory_order(ptr noundef nonnull align 8 dereferenceable(8) %5, i64 noundef 1, i32 noundef 4) #3
  store i64 %6, ptr %3, align 8, !tbaa !44
  %7 = load i64, ptr %3, align 8, !tbaa !44
  %8 = icmp eq i64 %7, 1
  call void @llvm.lifetime.end.p0(i64 8, ptr %3) #3
  ret i1 %8
}

; Function Attrs: mustprogress uwtable
define internal void @_ZNK9grpc_core10RefCountedINS_12_GLOBAL__N_118OutlierDetectionLb15SubchannelStateENS_19PolymorphicRefCountENS_11UnrefDeleteEE5UnrefEv(ptr noundef nonnull align 8 dereferenceable(16) %0) #4 align 2 {
  %2 = alloca ptr, align 8
  store ptr %0, ptr %2, align 8, !tbaa !560
  %3 = load ptr, ptr %2, align 8
  %4 = getelementptr inbounds nuw %"class.grpc_core::RefCounted", ptr %3, i32 0, i32 1
  %5 = call noundef zeroext i1 @_ZN9grpc_core8RefCount5UnrefEv(ptr noundef nonnull align 8 dereferenceable(8) %4)
  %6 = zext i1 %5 to i64
  %7 = call i64 @llvm.expect.i64(i64 %6, i64 0)
  %8 = icmp ne i64 %7, 0
  br i1 %8, label %9, label %10

9:                                                ; preds = %1
  call void @_ZNK9grpc_core11UnrefDeleteclIKNS_12_GLOBAL__N_118OutlierDetectionLb15SubchannelStateEEEvPT_(ptr noundef nonnull align 1 dereferenceable(1) %3, ptr noundef %3)
  br label %10

10:                                               ; preds = %9, %1
  ret void
}

; Function Attrs: mustprogress nounwind uwtable
define internal void @_ZN9grpc_core13RefCountedPtrINS_12_GLOBAL__N_118OutlierDetectionLb15SubchannelStateEED2Ev(ptr noundef nonnull align 8 dereferenceable(8) %0) unnamed_addr #6 align 2 personality ptr @__gxx_personality_v0 {
  %2 = alloca ptr, align 8
  store ptr %0, ptr %2, align 8, !tbaa !449
  %3 = load ptr, ptr %2, align 8
  %4 = getelementptr inbounds nuw %"class.grpc_core::RefCountedPtr.216", ptr %3, i32 0, i32 0
  %5 = load ptr, ptr %4, align 8, !tbaa !557
  %6 = icmp ne ptr %5, null
  br i1 %6, label %7, label %11

7:                                                ; preds = %1
  %8 = getelementptr inbounds nuw %"class.grpc_core::RefCountedPtr.216", ptr %3, i32 0, i32 0
  %9 = load ptr, ptr %8, align 8, !tbaa !557
  invoke void @_ZNK9grpc_core10RefCountedINS_12_GLOBAL__N_118OutlierDetectionLb15SubchannelStateENS_19PolymorphicRefCountENS_11UnrefDeleteEE5UnrefEv(ptr noundef nonnull align 8 dereferenceable(16) %9)
          to label %10 unwind label %12

10:                                               ; preds = %7
  br label %11

11:                                               ; preds = %10, %1
  ret void

12:                                               ; preds = %7
  %13 = landingpad { ptr, i32 }
          catch ptr null
  %14 = extractvalue { ptr, i32 } %13, 0
  call void @__clang_call_terminate(ptr %14) #30
  unreachable
}

; Function Attrs: inlinehint mustprogress nounwind uwtable
define internal void @_ZNSt4pairIK21grpc_resolved_addressN9grpc_core13RefCountedPtrINS2_12_GLOBAL__N_118OutlierDetectionLb15SubchannelStateEEEED2Ev(ptr noundef nonnull align 8 dereferenceable(144) %0) unnamed_addr #12 align 2 {
  %2 = alloca ptr, align 8
  store ptr %0, ptr %2, align 8, !tbaa !445
  %3 = load ptr, ptr %2, align 8
  %4 = getelementptr inbounds nuw %"struct.std::pair.214", ptr %3, i32 0, i32 1
  call void @_ZN9grpc_core13RefCountedPtrINS_12_GLOBAL__N_118OutlierDetectionLb15SubchannelStateEED2Ev(ptr noundef nonnull align 8 dereferenceable(8) %4) #3
  ret void
}

; Function Attrs: mustprogress nounwind uwtable
define internal noundef ptr @_ZN9__gnu_cxx16__aligned_membufISt4pairIK21grpc_resolved_addressN9grpc_core13RefCountedPtrINS4_12_GLOBAL__N_118OutlierDetectionLb15SubchannelStateEEEEE7_M_addrEv(ptr noundef nonnull align 8 dereferenceable(144) %0) #6 align 2 {
  %2 = alloca ptr, align 8
  store ptr %0, ptr %2, align 8, !tbaa !621
  %3 = load ptr, ptr %2, align 8
  %4 = getelementptr inbounds nuw %"struct.__gnu_cxx::__aligned_membuf.213", ptr %3, i32 0, i32 0
  ret ptr %4
}

; Function Attrs: mustprogress nounwind uwtable
define internal void @_ZNSt15__new_allocatorISt13_Rb_tree_nodeISt4pairIK21grpc_resolved_addressN9grpc_core13RefCountedPtrINS4_12_GLOBAL__N_118OutlierDetectionLb15SubchannelStateEEEEEE10deallocateEPSB_m(ptr noundef nonnull align 1 dereferenceable(1) %0, ptr noundef %1, i64 noundef %2) #6 align 2 {
  %4 = alloca ptr, align 8
  %5 = alloca ptr, align 8
  %6 = alloca i64, align 8
  store ptr %0, ptr %4, align 8, !tbaa !494
  store ptr %1, ptr %5, align 8, !tbaa !554
  store i64 %2, ptr %6, align 8, !tbaa !44
  %7 = load ptr, ptr %5, align 8, !tbaa !554
  %8 = load i64, ptr %6, align 8, !tbaa !44
  %9 = mul i64 %8, 176
  call void @_ZdlPvm(ptr noundef %7, i64 noundef %9) #29
  ret void
}

; Function Attrs: mustprogress nounwind uwtable
define internal void @_ZNSt15__new_allocatorISt13_Rb_tree_nodeISt4pairIK21grpc_resolved_addressN9grpc_core13RefCountedPtrINS4_12_GLOBAL__N_118OutlierDetectionLb15SubchannelStateEEEEEE7destroyISA_EEvPT_(ptr noundef nonnull align 1 dereferenceable(1) %0, ptr noundef %1) #6 align 2 {
  %3 = alloca ptr, align 8
  %4 = alloca ptr, align 8
  store ptr %0, ptr %3, align 8, !tbaa !494
  store ptr %1, ptr %4, align 8, !tbaa !445
  %5 = load ptr, ptr %4, align 8, !tbaa !445
  call void @_ZNSt4pairIK21grpc_resolved_addressN9grpc_core13RefCountedPtrINS2_12_GLOBAL__N_118OutlierDetectionLb15SubchannelStateEEEED2Ev(ptr noundef nonnull align 8 dereferenceable(144) %5) #3
  ret void
}

; Function Attrs: mustprogress nounwind uwtable
define internal noundef ptr @_ZN9__gnu_cxx16__aligned_membufISt4pairIK21grpc_resolved_addressN9grpc_core13RefCountedPtrINS4_12_GLOBAL__N_118OutlierDetectionLb15SubchannelStateEEEEE6_M_ptrEv(ptr noundef nonnull align 8 dereferenceable(144) %0) #6 align 2 {
  %2 = alloca ptr, align 8
  store ptr %0, ptr %2, align 8, !tbaa !621
  %3 = load ptr, ptr %2, align 8
  %4 = call noundef ptr @_ZN9__gnu_cxx16__aligned_membufISt4pairIK21grpc_resolved_addressN9grpc_core13RefCountedPtrINS4_12_GLOBAL__N_118OutlierDetectionLb15SubchannelStateEEEEE7_M_addrEv(ptr noundef nonnull align 8 dereferenceable(144) %3) #3
  ret ptr %4
}

; Function Attrs: mustprogress uwtable
define internal void @_ZNSt16allocator_traitsISaISt13_Rb_tree_nodeISt4pairIK21grpc_resolved_addressN9grpc_core13RefCountedPtrINS4_12_GLOBAL__N_118OutlierDetectionLb15SubchannelStateEEEEEEE10deallocateERSC_PSB_m(ptr noundef nonnull align 1 dereferenceable(1) %0, ptr noundef %1, i64 noundef %2) #4 align 2 {
  %4 = alloca ptr, align 8
  %5 = alloca ptr, align 8
  %6 = alloca i64, align 8
  store ptr %0, ptr %4, align 8, !tbaa !490
  store ptr %1, ptr %5, align 8, !tbaa !554
  store i64 %2, ptr %6, align 8, !tbaa !44
  %7 = load ptr, ptr %4, align 8, !tbaa !490
  %8 = load ptr, ptr %5, align 8, !tbaa !554
  %9 = load i64, ptr %6, align 8, !tbaa !44
  call void @_ZNSt15__new_allocatorISt13_Rb_tree_nodeISt4pairIK21grpc_resolved_addressN9grpc_core13RefCountedPtrINS4_12_GLOBAL__N_118OutlierDetectionLb15SubchannelStateEEEEEE10deallocateEPSB_m(ptr noundef nonnull align 1 dereferenceable(1) %7, ptr noundef %8, i64 noundef %9)
  ret void
}

; Function Attrs: noinline noreturn nounwind uwtable
define linkonce_odr hidden void @__clang_call_terminate(ptr noundef %0) #10 comdat {
  %2 = call ptr @__cxa_begin_catch(ptr %0) #3
  call void @_ZSt9terminatev() #30
  unreachable
}

; Function Attrs: mustprogress nounwind uwtable
define internal void @_ZNSt16allocator_traitsISaISt13_Rb_tree_nodeISt4pairIK21grpc_resolved_addressN9grpc_core13RefCountedPtrINS4_12_GLOBAL__N_118OutlierDetectionLb15SubchannelStateEEEEEEE7destroyISA_EEvRSC_PT_(ptr noundef nonnull align 1 dereferenceable(1) %0, ptr noundef %1) #6 align 2 {
  %3 = alloca ptr, align 8
  %4 = alloca ptr, align 8
  store ptr %0, ptr %3, align 8, !tbaa !490
  store ptr %1, ptr %4, align 8, !tbaa !445
  %5 = load ptr, ptr %3, align 8, !tbaa !490
  %6 = load ptr, ptr %4, align 8, !tbaa !445
  call void @_ZNSt15__new_allocatorISt13_Rb_tree_nodeISt4pairIK21grpc_resolved_addressN9grpc_core13RefCountedPtrINS4_12_GLOBAL__N_118OutlierDetectionLb15SubchannelStateEEEEEE7destroyISA_EEvPT_(ptr noundef nonnull align 1 dereferenceable(1) %5, ptr noundef %6) #3
  ret void
}

; Function Attrs: mustprogress nounwind uwtable
define internal noundef ptr @_ZNSt13_Rb_tree_nodeISt4pairIK21grpc_resolved_addressN9grpc_core13RefCountedPtrINS3_12_GLOBAL__N_118OutlierDetectionLb15SubchannelStateEEEEE9_M_valptrEv(ptr noundef nonnull align 8 dereferenceable(176) %0) #6 align 2 {
  %2 = alloca ptr, align 8
  store ptr %0, ptr %2, align 8, !tbaa !554
  %3 = load ptr, ptr %2, align 8
  %4 = getelementptr inbounds nuw %"struct.std::_Rb_tree_node.212", ptr %3, i32 0, i32 1
  %5 = call noundef ptr @_ZN9__gnu_cxx16__aligned_membufISt4pairIK21grpc_resolved_addressN9grpc_core13RefCountedPtrINS4_12_GLOBAL__N_118OutlierDetectionLb15SubchannelStateEEEEE6_M_ptrEv(ptr noundef nonnull align 8 dereferenceable(144) %4) #3
  ret ptr %5
}

; Function Attrs: mustprogress nounwind uwtable
define internal noundef nonnull align 1 dereferenceable(1) ptr @_ZNSt8_Rb_treeI21grpc_resolved_addressSt4pairIKS0_N9grpc_core13RefCountedPtrINS3_12_GLOBAL__N_118OutlierDetectionLb15SubchannelStateEEEESt10_Select1stIS9_ENS3_23ResolvedAddressLessThanESaIS9_EE21_M_get_Node_allocatorEv(ptr noundef nonnull align 8 dereferenceable(48) %0) #6 align 2 {
  %2 = alloca ptr, align 8
  store ptr %0, ptr %2, align 8, !tbaa !486
  %3 = load ptr, ptr %2, align 8
  %4 = getelementptr inbounds nuw %"class.std::_Rb_tree.168", ptr %3, i32 0, i32 0
  ret ptr %4
}

; Function Attrs: mustprogress nounwind uwtable
define internal void @_ZNSt8_Rb_treeI21grpc_resolved_addressSt4pairIKS0_N9grpc_core13RefCountedPtrINS3_12_GLOBAL__N_118OutlierDetectionLb15SubchannelStateEEEESt10_Select1stIS9_ENS3_23ResolvedAddressLessThanESaIS9_EE11_M_put_nodeEPSt13_Rb_tree_nodeIS9_E(ptr noundef nonnull align 8 dereferenceable(48) %0, ptr noundef %1) #6 align 2 personality ptr @__gxx_personality_v0 {
  %3 = alloca ptr, align 8
  %4 = alloca ptr, align 8
  store ptr %0, ptr %3, align 8, !tbaa !486
  store ptr %1, ptr %4, align 8, !tbaa !554
  %5 = load ptr, ptr %3, align 8
  %6 = call noundef nonnull align 1 dereferenceable(1) ptr @_ZNSt8_Rb_treeI21grpc_resolved_addressSt4pairIKS0_N9grpc_core13RefCountedPtrINS3_12_GLOBAL__N_118OutlierDetectionLb15SubchannelStateEEEESt10_Select1stIS9_ENS3_23ResolvedAddressLessThanESaIS9_EE21_M_get_Node_allocatorEv(ptr noundef nonnull align 8 dereferenceable(48) %5) #3
  %7 = load ptr, ptr %4, align 8, !tbaa !554
  invoke void @_ZNSt16allocator_traitsISaISt13_Rb_tree_nodeISt4pairIK21grpc_resolved_addressN9grpc_core13RefCountedPtrINS4_12_GLOBAL__N_118OutlierDetectionLb15SubchannelStateEEEEEEE10deallocateERSC_PSB_m(ptr noundef nonnull align 1 dereferenceable(1) %6, ptr noundef %7, i64 noundef 1)
          to label %8 unwind label %9

8:                                                ; preds = %2
  ret void

9:                                                ; preds = %2
  %10 = landingpad { ptr, i32 }
          catch ptr null
  %11 = extractvalue { ptr, i32 } %10, 0
  call void @__clang_call_terminate(ptr %11) #30
  unreachable
}

; Function Attrs: mustprogress nounwind uwtable
define internal void @_ZNSt8_Rb_treeI21grpc_resolved_addressSt4pairIKS0_N9grpc_core13RefCountedPtrINS3_12_GLOBAL__N_118OutlierDetectionLb15SubchannelStateEEEESt10_Select1stIS9_ENS3_23ResolvedAddressLessThanESaIS9_EE15_M_destroy_nodeEPSt13_Rb_tree_nodeIS9_E(ptr noundef nonnull align 8 dereferenceable(48) %0, ptr noundef %1) #6 align 2 personality ptr @__gxx_personality_v0 {
  %3 = alloca ptr, align 8
  %4 = alloca ptr, align 8
  store ptr %0, ptr %3, align 8, !tbaa !486
  store ptr %1, ptr %4, align 8, !tbaa !554
  %5 = load ptr, ptr %3, align 8
  %6 = call noundef nonnull align 1 dereferenceable(1) ptr @_ZNSt8_Rb_treeI21grpc_resolved_addressSt4pairIKS0_N9grpc_core13RefCountedPtrINS3_12_GLOBAL__N_118OutlierDetectionLb15SubchannelStateEEEESt10_Select1stIS9_ENS3_23ResolvedAddressLessThanESaIS9_EE21_M_get_Node_allocatorEv(ptr noundef nonnull align 8 dereferenceable(48) %5) #3
  %7 = load ptr, ptr %4, align 8, !tbaa !554
  %8 = invoke noundef ptr @_ZNSt13_Rb_tree_nodeISt4pairIK21grpc_resolved_addressN9grpc_core13RefCountedPtrINS3_12_GLOBAL__N_118OutlierDetectionLb15SubchannelStateEEEEE9_M_valptrEv(ptr noundef nonnull align 8 dereferenceable(176) %7)
          to label %9 unwind label %10

9:                                                ; preds = %2
  call void @_ZNSt16allocator_traitsISaISt13_Rb_tree_nodeISt4pairIK21grpc_resolved_addressN9grpc_core13RefCountedPtrINS4_12_GLOBAL__N_118OutlierDetectionLb15SubchannelStateEEEEEEE7destroyISA_EEvRSC_PT_(ptr noundef nonnull align 1 dereferenceable(1) %6, ptr noundef %8) #3
  ret void

10:                                               ; preds = %2
  %11 = landingpad { ptr, i32 }
          catch ptr null
  %12 = extractvalue { ptr, i32 } %11, 0
  call void @__clang_call_terminate(ptr %12) #30
  unreachable
}

; Function Attrs: mustprogress nounwind uwtable
define internal void @_ZNSt8_Rb_treeI21grpc_resolved_addressSt4pairIKS0_N9grpc_core13RefCountedPtrINS3_12_GLOBAL__N_118OutlierDetectionLb15SubchannelStateEEEESt10_Select1stIS9_ENS3_23ResolvedAddressLessThanESaIS9_EE12_M_drop_nodeEPSt13_Rb_tree_nodeIS9_E(ptr noundef nonnull align 8 dereferenceable(48) %0, ptr noundef %1) #6 align 2 {
  %3 = alloca ptr, align 8
  %4 = alloca ptr, align 8
  store ptr %0, ptr %3, align 8, !tbaa !486
  store ptr %1, ptr %4, align 8, !tbaa !554
  %5 = load ptr, ptr %3, align 8
  %6 = load ptr, ptr %4, align 8, !tbaa !554
  call void @_ZNSt8_Rb_treeI21grpc_resolved_addressSt4pairIKS0_N9grpc_core13RefCountedPtrINS3_12_GLOBAL__N_118OutlierDetectionLb15SubchannelStateEEEESt10_Select1stIS9_ENS3_23ResolvedAddressLessThanESaIS9_EE15_M_destroy_nodeEPSt13_Rb_tree_nodeIS9_E(ptr noundef nonnull align 8 dereferenceable(48) %5, ptr noundef %6) #3
  %7 = load ptr, ptr %4, align 8, !tbaa !554
  call void @_ZNSt8_Rb_treeI21grpc_resolved_addressSt4pairIKS0_N9grpc_core13RefCountedPtrINS3_12_GLOBAL__N_118OutlierDetectionLb15SubchannelStateEEEESt10_Select1stIS9_ENS3_23ResolvedAddressLessThanESaIS9_EE11_M_put_nodeEPSt13_Rb_tree_nodeIS9_E(ptr noundef nonnull align 8 dereferenceable(48) %5, ptr noundef %7) #3
  ret void
}

; Function Attrs: mustprogress nounwind uwtable
define internal noundef ptr @_ZNSt8_Rb_treeI21grpc_resolved_addressSt4pairIKS0_N9grpc_core13RefCountedPtrINS3_12_GLOBAL__N_118OutlierDetectionLb15SubchannelStateEEEESt10_Select1stIS9_ENS3_23ResolvedAddressLessThanESaIS9_EE7_S_leftEPSt18_Rb_tree_node_base(ptr noundef %0) #6 align 2 {
  %2 = alloca ptr, align 8
  store ptr %0, ptr %2, align 8, !tbaa !222
  %3 = load ptr, ptr %2, align 8, !tbaa !222
  %4 = getelementptr inbounds nuw %"struct.std::_Rb_tree_node_base", ptr %3, i32 0, i32 2
  %5 = load ptr, ptr %4, align 8, !tbaa !233
  ret ptr %5
}

; Function Attrs: mustprogress nounwind uwtable
define internal noundef ptr @_ZNSt8_Rb_treeI21grpc_resolved_addressSt4pairIKS0_N9grpc_core13RefCountedPtrINS3_12_GLOBAL__N_118OutlierDetectionLb15SubchannelStateEEEESt10_Select1stIS9_ENS3_23ResolvedAddressLessThanESaIS9_EE8_S_rightEPSt18_Rb_tree_node_base(ptr noundef %0) #6 align 2 {
  %2 = alloca ptr, align 8
  store ptr %0, ptr %2, align 8, !tbaa !222
  %3 = load ptr, ptr %2, align 8, !tbaa !222
  %4 = getelementptr inbounds nuw %"struct.std::_Rb_tree_node_base", ptr %3, i32 0, i32 3
  %5 = load ptr, ptr %4, align 8, !tbaa !234
  ret ptr %5
}

; Function Attrs: mustprogress uwtable
define internal void @_ZNSt8_Rb_treeI21grpc_resolved_addressSt4pairIKS0_N9grpc_core13RefCountedPtrINS3_12_GLOBAL__N_118OutlierDetectionLb15SubchannelStateEEEESt10_Select1stIS9_ENS3_23ResolvedAddressLessThanESaIS9_EE8_M_eraseEPSt13_Rb_tree_nodeIS9_E(ptr noundef nonnull align 8 dereferenceable(48) %0, ptr noundef %1) #4 align 2 {
  %3 = alloca ptr, align 8
  %4 = alloca ptr, align 8
  %5 = alloca ptr, align 8
  store ptr %0, ptr %3, align 8, !tbaa !486
  store ptr %1, ptr %4, align 8, !tbaa !554
  %6 = load ptr, ptr %3, align 8
  br label %7

7:                                                ; preds = %10, %2
  %8 = load ptr, ptr %4, align 8, !tbaa !554
  %9 = icmp ne ptr %8, null
  br i1 %9, label %10, label %17

10:                                               ; preds = %7
  %11 = load ptr, ptr %4, align 8, !tbaa !554
  %12 = call noundef ptr @_ZNSt8_Rb_treeI21grpc_resolved_addressSt4pairIKS0_N9grpc_core13RefCountedPtrINS3_12_GLOBAL__N_118OutlierDetectionLb15SubchannelStateEEEESt10_Select1stIS9_ENS3_23ResolvedAddressLessThanESaIS9_EE8_S_rightEPSt18_Rb_tree_node_base(ptr noundef %11) #3
  call void @_ZNSt8_Rb_treeI21grpc_resolved_addressSt4pairIKS0_N9grpc_core13RefCountedPtrINS3_12_GLOBAL__N_118OutlierDetectionLb15SubchannelStateEEEESt10_Select1stIS9_ENS3_23ResolvedAddressLessThanESaIS9_EE8_M_eraseEPSt13_Rb_tree_nodeIS9_E(ptr noundef nonnull align 8 dereferenceable(48) %6, ptr noundef %12)
  call void @llvm.lifetime.start.p0(i64 8, ptr %5) #3
  %13 = load ptr, ptr %4, align 8, !tbaa !554
  %14 = call noundef ptr @_ZNSt8_Rb_treeI21grpc_resolved_addressSt4pairIKS0_N9grpc_core13RefCountedPtrINS3_12_GLOBAL__N_118OutlierDetectionLb15SubchannelStateEEEESt10_Select1stIS9_ENS3_23ResolvedAddressLessThanESaIS9_EE7_S_leftEPSt18_Rb_tree_node_base(ptr noundef %13) #3
  store ptr %14, ptr %5, align 8, !tbaa !554
  %15 = load ptr, ptr %4, align 8, !tbaa !554
  call void @_ZNSt8_Rb_treeI21grpc_resolved_addressSt4pairIKS0_N9grpc_core13RefCountedPtrINS3_12_GLOBAL__N_118OutlierDetectionLb15SubchannelStateEEEESt10_Select1stIS9_ENS3_23ResolvedAddressLessThanESaIS9_EE12_M_drop_nodeEPSt13_Rb_tree_nodeIS9_E(ptr noundef nonnull align 8 dereferenceable(48) %6, ptr noundef %15) #3
  %16 = load ptr, ptr %5, align 8, !tbaa !554
  store ptr %16, ptr %4, align 8, !tbaa !554
  call void @llvm.lifetime.end.p0(i64 8, ptr %5) #3
  br label %7, !llvm.loop !556

17:                                               ; preds = %7
  ret void
}