; Function Attrs: mustprogress nounwind uwtable
define internal fastcc void @_ZNSt8_Rb_treeI21grpc_resolved_addressSt4pairIKS0_N9grpc_core13RefCountedPtrINS3_12_GLOBAL__N_118OutlierDetectionLb15SubchannelStateEEEESt10_Select1stIS9_ENS3_23ResolvedAddressLessThanESaIS9_EE8_M_eraseEPSt13_Rb_tree_nodeIS9_E(ptr noundef %0) unnamed_addr #5 align 2 personality ptr @__gxx_personality_v0 {
  %.not1 = icmp eq ptr %0, null
  br i1 %.not1, label %._crit_edge, label %.lr.ph

.lr.ph:                                           ; preds = %1, %_ZNSt8_Rb_treeI21grpc_resolved_addressSt4pairIKS0_N9grpc_core13RefCountedPtrINS3_12_GLOBAL__N_118OutlierDetectionLb15SubchannelStateEEEESt10_Select1stIS9_ENS3_23ResolvedAddressLessThanESaIS9_EE12_M_drop_nodeEPSt13_Rb_tree_nodeIS9_E.exit
  %.02 = phi ptr [ %.0.val6, %_ZNSt8_Rb_treeI21grpc_resolved_addressSt4pairIKS0_N9grpc_core13RefCountedPtrINS3_12_GLOBAL__N_118OutlierDetectionLb15SubchannelStateEEEESt10_Select1stIS9_ENS3_23ResolvedAddressLessThanESaIS9_EE12_M_drop_nodeEPSt13_Rb_tree_nodeIS9_E.exit ], [ %0, %1 ]
  %2 = getelementptr i8, ptr %.02, i64 24
  %.0.val = load ptr, ptr %2, align 8, !tbaa !260
  tail call fastcc void @_ZNSt8_Rb_treeI21grpc_resolved_addressSt4pairIKS0_N9grpc_core13RefCountedPtrINS3_12_GLOBAL__N_118OutlierDetectionLb15SubchannelStateEEEESt10_Select1stIS9_ENS3_23ResolvedAddressLessThanESaIS9_EE8_M_eraseEPSt13_Rb_tree_nodeIS9_E(ptr noundef %.0.val)
  %3 = getelementptr i8, ptr %.02, i64 16
  %.0.val6 = load ptr, ptr %3, align 8, !tbaa !261
  %4 = getelementptr i8, ptr %.02, i64 168
  %.val.i = load ptr, ptr %4, align 8, !tbaa !228
  %.not.i.i.i.i.i.i = icmp eq ptr %.val.i, null
  br i1 %.not.i.i.i.i.i.i, label %_ZNSt8_Rb_treeI21grpc_resolved_addressSt4pairIKS0_N9grpc_core13RefCountedPtrINS3_12_GLOBAL__N_118OutlierDetectionLb15SubchannelStateEEEESt10_Select1stIS9_ENS3_23ResolvedAddressLessThanESaIS9_EE12_M_drop_nodeEPSt13_Rb_tree_nodeIS9_E.exit, label %5

5:                                                ; preds = %.lr.ph
  %6 = getelementptr inbounds nuw i8, ptr %.val.i, i64 8
  %7 = atomicrmw sub ptr %6, i64 1 acq_rel, align 8
  %8 = icmp eq i64 %7, 1
  br i1 %8, label %9, label %_ZNSt8_Rb_treeI21grpc_resolved_addressSt4pairIKS0_N9grpc_core13RefCountedPtrINS3_12_GLOBAL__N_118OutlierDetectionLb15SubchannelStateEEEESt10_Select1stIS9_ENS3_23ResolvedAddressLessThanESaIS9_EE12_M_drop_nodeEPSt13_Rb_tree_nodeIS9_E.exit, !prof !99

9:                                                ; preds = %5
  tail call fastcc void @_ZNK9grpc_core11UnrefDeleteclIKNS_12_GLOBAL__N_118OutlierDetectionLb15SubchannelStateEEEvPT_(ptr noundef nonnull align 8 dereferenceable(16) %.val.i)
  br label %_ZNSt8_Rb_treeI21grpc_resolved_addressSt4pairIKS0_N9grpc_core13RefCountedPtrINS3_12_GLOBAL__N_118OutlierDetectionLb15SubchannelStateEEEESt10_Select1stIS9_ENS3_23ResolvedAddressLessThanESaIS9_EE12_M_drop_nodeEPSt13_Rb_tree_nodeIS9_E.exit

_ZNSt8_Rb_treeI21grpc_resolved_addressSt4pairIKS0_N9grpc_core13RefCountedPtrINS3_12_GLOBAL__N_118OutlierDetectionLb15SubchannelStateEEEESt10_Select1stIS9_ENS3_23ResolvedAddressLessThanESaIS9_EE12_M_drop_nodeEPSt13_Rb_tree_nodeIS9_E.exit: ; preds = %.lr.ph, %5, %9
  tail call void @_ZdlPvm(ptr noundef nonnull %.02, i64 noundef 176) #40
  %.not = icmp eq ptr %.0.val6, null
  br i1 %.not, label %._crit_edge, label %.lr.ph, !llvm.loop !262

._crit_edge:                                      ; preds = %_ZNSt8_Rb_treeI21grpc_resolved_addressSt4pairIKS0_N9grpc_core13RefCountedPtrINS3_12_GLOBAL__N_118OutlierDetectionLb15SubchannelStateEEEESt10_Select1stIS9_ENS3_23ResolvedAddressLessThanESaIS9_EE12_M_drop_nodeEPSt13_Rb_tree_nodeIS9_E.exit, %1
  ret void
}